target datalayout = "e-m:e-p270:32:32-p271:32:32-p272:64:64-i64:64-i128:128-f80:128-n8:16:32:64-S128"
target triple = "x86_64-unknown-linux-gnu"

%struct.File = type { ptr, i32, ptr, ptr, i32 }
%struct.Token = type { i32, ptr, i64, x86_fp80, ptr, i32, ptr, ptr, ptr, ptr, i32, i32, i8, i8, ptr, ptr }

@current_file = internal global ptr null, align 8
@at_bol = internal global i8 0, align 1
@has_space = internal global i8 0, align 1

; Function Attrs: nounwind uwtable
define internal ptr @new_token(i32 noundef %kind, ptr noundef %start, ptr noundef %end) #4 {
entry:
  %kind.addr = alloca i32, align 4
  %start.addr = alloca ptr, align 8
  %end.addr = alloca ptr, align 8
  %tok = alloca ptr, align 8
  store i32 %kind, ptr %kind.addr, align 4
  store ptr %start, ptr %start.addr, align 8
  store ptr %end, ptr %end.addr, align 8
  %call = call noalias ptr @calloc(i64 noundef 1, i64 noundef 128) #15
  store ptr %call, ptr %tok, align 8
  %0 = load i32, ptr %kind.addr, align 4
  %1 = load ptr, ptr %tok, align 8
  %kind1 = getelementptr inbounds %struct.Token, ptr %1, i32 0, i32 0
  store i32 %0, ptr %kind1, align 16
  %2 = load ptr, ptr %start.addr, align 8
  %3 = load ptr, ptr %tok, align 8
  %loc = getelementptr inbounds %struct.Token, ptr %3, i32 0, i32 4
  store ptr %2, ptr %loc, align 16
  %4 = load ptr, ptr %end.addr, align 8
  %5 = load ptr, ptr %start.addr, align 8
  %sub.ptr.lhs.cast = ptrtoint ptr %4 to i64
  %sub.ptr.rhs.cast = ptrtoint ptr %5 to i64
  %sub.ptr.sub = sub i64 %sub.ptr.lhs.cast, %sub.ptr.rhs.cast
  %conv = trunc i64 %sub.ptr.sub to i32
  %6 = load ptr, ptr %tok, align 8
  %len = getelementptr inbounds %struct.Token, ptr %6, i32 0, i32 5
  store i32 %conv, ptr %len, align 8
  %7 = load ptr, ptr @current_file, align 8
  %8 = load ptr, ptr %tok, align 8
  %file = getelementptr inbounds %struct.Token, ptr %8, i32 0, i32 8
  store ptr %7, ptr %file, align 16
  %9 = load ptr, ptr @current_file, align 8
  %display_name = getelementptr inbounds %struct.File, ptr %9, i32 0, i32 3
  %10 = load ptr, ptr %display_name, align 8
  %11 = load ptr, ptr %tok, align 8
  %filename = getelementptr inbounds %struct.Token, ptr %11, i32 0, i32 9
  store ptr %10, ptr %filename, align 8
  %12 = load i8, ptr @at_bol, align 1
  %tobool = trunc i8 %12 to i1
  %13 = load ptr, ptr %tok, align 8
  %at_bol = getelementptr inbounds %struct.Token, ptr %13, i32 0, i32 12
  %frombool = zext i1 %tobool to i8
  store i8 %frombool, ptr %at_bol, align 8
  %14 = load i8, ptr @has_space, align 1
  %tobool2 = trunc i8 %14 to i1
  %15 = load ptr, ptr %tok, align 8
  %has_space = getelementptr inbounds %struct.Token, ptr %15, i32 0, i32 13
  %frombool3 = zext i1 %tobool2 to i8
  store i8 %frombool3, ptr %has_space, align 1
  store i8 0, ptr @has_space, align 1
  store i8 0, ptr @at_bol, align 1
  %16 = load ptr, ptr %tok, align 8
  ret ptr %16
}