; Function Attrs: mustprogress nofree nounwind willreturn memory(readwrite, argmem: read) uwtable
define internal fastcc noalias noundef ptr @new_token(i32 noundef %kind, ptr noundef %start, ptr noundef %end) unnamed_addr #11 {
entry:
  %call = tail call noalias dereferenceable_or_null(128) ptr @calloc(i64 noundef 1, i64 noundef 128) #29
  store i32 %kind, ptr %call, align 16
  %loc = getelementptr inbounds %struct.Token, ptr %call, i64 0, i32 4
  store ptr %start, ptr %loc, align 16
  %sub.ptr.lhs.cast = ptrtoint ptr %end to i64
  %sub.ptr.rhs.cast = ptrtoint ptr %start to i64
  %sub.ptr.sub = sub i64 %sub.ptr.lhs.cast, %sub.ptr.rhs.cast
  %conv = trunc i64 %sub.ptr.sub to i32
  %len = getelementptr inbounds %struct.Token, ptr %call, i64 0, i32 5
  store i32 %conv, ptr %len, align 8
  %0 = load ptr, ptr @current_file, align 8
  %file = getelementptr inbounds %struct.Token, ptr %call, i64 0, i32 8
  store ptr %0, ptr %file, align 16
  %display_name = getelementptr inbounds %struct.File, ptr %0, i64 0, i32 3
  %1 = load ptr, ptr %display_name, align 8
  %filename = getelementptr inbounds %struct.Token, ptr %call, i64 0, i32 9
  store ptr %1, ptr %filename, align 8
  %.b10 = load i1, ptr @at_bol, align 1
  %at_bol = getelementptr inbounds %struct.Token, ptr %call, i64 0, i32 12
  %frombool = zext i1 %.b10 to i8
  store i8 %frombool, ptr %at_bol, align 8
  %.b911 = load i1, ptr @has_space, align 1
  %has_space = getelementptr inbounds %struct.Token, ptr %call, i64 0, i32 13
  %frombool3 = zext i1 %.b911 to i8
  store i8 %frombool3, ptr %has_space, align 1
  store i1 false, ptr @has_space, align 1
  store i1 false, ptr @at_bol, align 1
  ret ptr %call
}